; ModuleID = '57/2393.c'
source_filename = "57/2393.c"
target datalayout = "e-m:e-p270:32:32-p271:32:32-p272:64:64-i64:64-f80:128-n8:16:32:64-S128"
target triple = "x86_64-pc-linux-gnu"

@.str = private unnamed_addr constant [3 x i8] c"%d\00", align 1
@.str.1 = private unnamed_addr constant [3 x i8] c"%s\00", align 1
@.str.2 = private unnamed_addr constant [4 x i8] c"%s\0A\00", align 1

; Function Attrs: noinline nounwind uwtable
define dso_local i32 @main() #0 {
  %1 = alloca i32, align 4
  %2 = alloca i32, align 4
  %3 = alloca i32, align 4
  %4 = alloca i32, align 4
  %5 = alloca i8*, align 8
  %6 = alloca i64, align 8
  %7 = alloca i64, align 8
  store i32 0, i32* %1, align 4
  %8 = call i32 (i8*, ...) @__isoc99_scanf(i8* getelementptr inbounds ([3 x i8], [3 x i8]* @.str, i64 0, i64 0), i32* %2)
  %9 = load i32, i32* %2, align 4
  %10 = zext i32 %9 to i64
  %11 = call i8* @llvm.stacksave()
  store i8* %11, i8** %5, align 8
  %12 = alloca i32, i64 %10, align 16
  store i64 %10, i64* %6, align 8
  %13 = load i32, i32* %2, align 4
  %14 = zext i32 %13 to i64
  %15 = alloca [33 x i8], i64 %14, align 16
  store i64 %14, i64* %7, align 8
  store i32 0, i32* %3, align 4
  br label %16

16:                                               ; preds = %34, %0
  %17 = load i32, i32* %3, align 4
  %18 = load i32, i32* %2, align 4
  %19 = icmp slt i32 %17, %18
  br i1 %19, label %20, label %37

20:                                               ; preds = %16
  %21 = load i32, i32* %3, align 4
  %22 = sext i32 %21 to i64
  %23 = getelementptr inbounds [33 x i8], [33 x i8]* %15, i64 %22
  %24 = call i32 (i8*, ...) @__isoc99_scanf(i8* getelementptr inbounds ([3 x i8], [3 x i8]* @.str.1, i64 0, i64 0), [33 x i8]* %23)
  %25 = load i32, i32* %3, align 4
  %26 = sext i32 %25 to i64
  %27 = getelementptr inbounds [33 x i8], [33 x i8]* %15, i64 %26
  %28 = getelementptr inbounds [33 x i8], [33 x i8]* %27, i64 0, i64 0
  %29 = call i64 @strlen(i8* %28) #4
  %30 = trunc i64 %29 to i32
  %31 = load i32, i32* %3, align 4
  %32 = sext i32 %31 to i64
  %33 = getelementptr inbounds i32, i32* %12, i64 %32
  store i32 %30, i32* %33, align 4
  br label %34

34:                                               ; preds = %20
  %35 = load i32, i32* %3, align 4
  %36 = add nsw i32 %35, 1
  store i32 %36, i32* %3, align 4
  br label %16

37:                                               ; preds = %16
  store i32 0, i32* %3, align 4
  br label %38

38:                                               ; preds = %160, %37
  %39 = load i32, i32* %3, align 4
  %40 = load i32, i32* %2, align 4
  %41 = icmp slt i32 %39, %40
  br i1 %41, label %42, label %163

42:                                               ; preds = %38
  %43 = load i32, i32* %3, align 4
  %44 = sext i32 %43 to i64
  %45 = getelementptr inbounds [33 x i8], [33 x i8]* %15, i64 %44
  %46 = load i32, i32* %3, align 4
  %47 = sext i32 %46 to i64
  %48 = getelementptr inbounds i32, i32* %12, i64 %47
  %49 = load i32, i32* %48, align 4
  %50 = sub nsw i32 %49, 1
  %51 = sext i32 %50 to i64
  %52 = getelementptr inbounds [33 x i8], [33 x i8]* %45, i64 0, i64 %51
  %53 = load i8, i8* %52, align 1
  %54 = sext i8 %53 to i32
  %55 = icmp eq i32 %54, 114
  br i1 %55, label %56, label %77

56:                                               ; preds = %42
  %57 = load i32, i32* %3, align 4
  %58 = sext i32 %57 to i64
  %59 = getelementptr inbounds [33 x i8], [33 x i8]* %15, i64 %58
  %60 = load i32, i32* %3, align 4
  %61 = sext i32 %60 to i64
  %62 = getelementptr inbounds i32, i32* %12, i64 %61
  %63 = load i32, i32* %62, align 4
  %64 = sub nsw i32 %63, 1
  %65 = sext i32 %64 to i64
  %66 = getelementptr inbounds [33 x i8], [33 x i8]* %59, i64 0, i64 %65
  store i8 0, i8* %66, align 1
  %67 = load i32, i32* %3, align 4
  %68 = sext i32 %67 to i64
  %69 = getelementptr inbounds [33 x i8], [33 x i8]* %15, i64 %68
  %70 = load i32, i32* %3, align 4
  %71 = sext i32 %70 to i64
  %72 = getelementptr inbounds i32, i32* %12, i64 %71
  %73 = load i32, i32* %72, align 4
  %74 = sub nsw i32 %73, 2
  %75 = sext i32 %74 to i64
  %76 = getelementptr inbounds [33 x i8], [33 x i8]* %69, i64 0, i64 %75
  store i8 0, i8* %76, align 1
  br label %159

77:                                               ; preds = %42
  %78 = load i32, i32* %3, align 4
  %79 = sext i32 %78 to i64
  %80 = getelementptr inbounds [33 x i8], [33 x i8]* %15, i64 %79
  %81 = load i32, i32* %3, align 4
  %82 = sext i32 %81 to i64
  %83 = getelementptr inbounds i32, i32* %12, i64 %82
  %84 = load i32, i32* %83, align 4
  %85 = sub nsw i32 %84, 1
  %86 = sext i32 %85 to i64
  %87 = getelementptr inbounds [33 x i8], [33 x i8]* %80, i64 0, i64 %86
  %88 = load i8, i8* %87, align 1
  %89 = sext i8 %88 to i32
  %90 = icmp eq i32 %89, 121
  br i1 %90, label %91, label %112

91:                                               ; preds = %77
  %92 = load i32, i32* %3, align 4
  %93 = sext i32 %92 to i64
  %94 = getelementptr inbounds [33 x i8], [33 x i8]* %15, i64 %93
  %95 = load i32, i32* %3, align 4
  %96 = sext i32 %95 to i64
  %97 = getelementptr inbounds i32, i32* %12, i64 %96
  %98 = load i32, i32* %97, align 4
  %99 = sub nsw i32 %98, 1
  %100 = sext i32 %99 to i64
  %101 = getelementptr inbounds [33 x i8], [33 x i8]* %94, i64 0, i64 %100
  store i8 0, i8* %101, align 1
  %102 = load i32, i32* %3, align 4
  %103 = sext i32 %102 to i64
  %104 = getelementptr inbounds [33 x i8], [33 x i8]* %15, i64 %103
  %105 = load i32, i32* %3, align 4
  %106 = sext i32 %105 to i64
  %107 = getelementptr inbounds i32, i32* %12, i64 %106
  %108 = load i32, i32* %107, align 4
  %109 = sub nsw i32 %108, 2
  %110 = sext i32 %109 to i64
  %111 = getelementptr inbounds [33 x i8], [33 x i8]* %104, i64 0, i64 %110
  store i8 0, i8* %111, align 1
  br label %158

112:                                              ; preds = %77
  %113 = load i32, i32* %3, align 4
  %114 = sext i32 %113 to i64
  %115 = getelementptr inbounds [33 x i8], [33 x i8]* %15, i64 %114
  %116 = load i32, i32* %3, align 4
  %117 = sext i32 %116 to i64
  %118 = getelementptr inbounds i32, i32* %12, i64 %117
  %119 = load i32, i32* %118, align 4
  %120 = sub nsw i32 %119, 1
  %121 = sext i32 %120 to i64
  %122 = getelementptr inbounds [33 x i8], [33 x i8]* %115, i64 0, i64 %121
  %123 = load i8, i8* %122, align 1
  %124 = sext i8 %123 to i32
  %125 = icmp eq i32 %124, 103
  br i1 %125, label %126, label %157

126:                                              ; preds = %112
  %127 = load i32, i32* %3, align 4
  %128 = sext i32 %127 to i64
  %129 = getelementptr inbounds [33 x i8], [33 x i8]* %15, i64 %128
  %130 = load i32, i32* %3, align 4
  %131 = sext i32 %130 to i64
  %132 = getelementptr inbounds i32, i32* %12, i64 %131
  %133 = load i32, i32* %132, align 4
  %134 = sub nsw i32 %133, 1
  %135 = sext i32 %134 to i64
  %136 = getelementptr inbounds [33 x i8], [33 x i8]* %129, i64 0, i64 %135
  store i8 0, i8* %136, align 1
  %137 = load i32, i32* %3, align 4
  %138 = sext i32 %137 to i64
  %139 = getelementptr inbounds [33 x i8], [33 x i8]* %15, i64 %138
  %140 = load i32, i32* %3, align 4
  %141 = sext i32 %140 to i64
  %142 = getelementptr inbounds i32, i32* %12, i64 %141
  %143 = load i32, i32* %142, align 4
  %144 = sub nsw i32 %143, 2
  %145 = sext i32 %144 to i64
  %146 = getelementptr inbounds [33 x i8], [33 x i8]* %139, i64 0, i64 %145
  store i8 0, i8* %146, align 1
  %147 = load i32, i32* %3, align 4
  %148 = sext i32 %147 to i64
  %149 = getelementptr inbounds [33 x i8], [33 x i8]* %15, i64 %148
  %150 = load i32, i32* %3, align 4
  %151 = sext i32 %150 to i64
  %152 = getelementptr inbounds i32, i32* %12, i64 %151
  %153 = load i32, i32* %152, align 4
  %154 = sub nsw i32 %153, 3
  %155 = sext i32 %154 to i64
  %156 = getelementptr inbounds [33 x i8], [33 x i8]* %149, i64 0, i64 %155
  store i8 0, i8* %156, align 1
  br label %157

157:                                              ; preds = %126, %112
  br label %158

158:                                              ; preds = %157, %91
  br label %159

159:                                              ; preds = %158, %56
  br label %160

160:                                              ; preds = %159
  %161 = load i32, i32* %3, align 4
  %162 = add nsw i32 %161, 1
  store i32 %162, i32* %3, align 4
  br label %38

163:                                              ; preds = %38
  store i32 0, i32* %3, align 4
  br label %164

164:                                              ; preds = %174, %163
  %165 = load i32, i32* %3, align 4
  %166 = load i32, i32* %2, align 4
  %167 = icmp slt i32 %165, %166
  br i1 %167, label %168, label %177

168:                                              ; preds = %164
  %169 = load i32, i32* %3, align 4
  %170 = sext i32 %169 to i64
  %171 = getelementptr inbounds [33 x i8], [33 x i8]* %15, i64 %170
  %172 = getelementptr inbounds [33 x i8], [33 x i8]* %171, i64 0, i64 0
  %173 = call i32 (i8*, ...) @printf(i8* getelementptr inbounds ([4 x i8], [4 x i8]* @.str.2, i64 0, i64 0), i8* %172)
  br label %174

174:                                              ; preds = %168
  %175 = load i32, i32* %3, align 4
  %176 = add nsw i32 %175, 1
  store i32 %176, i32* %3, align 4
  br label %164

177:                                              ; preds = %164
  store i32 0, i32* %1, align 4
  %178 = load i8*, i8** %5, align 8
  call void @llvm.stackrestore(i8* %178)
  %179 = load i32, i32* %1, align 4
  ret i32 %179
}

declare dso_local i32 @__isoc99_scanf(i8*, ...) #1

; Function Attrs: nounwind
declare i8* @llvm.stacksave() #2

; Function Attrs: nounwind readonly
declare dso_local i64 @strlen(i8*) #3

declare dso_local i32 @printf(i8*, ...) #1

; Function Attrs: nounwind
declare void @llvm.stackrestore(i8*) #2


!llvm.module.flags = !{!0}
!llvm.ident = !{!1}

!0 = !{i32 1, !"wchar_size", i32 4}
!1 = !{!"clang version 10.0.0-4ubuntu1 "}
